; ModuleID = '34/1832.c'
source_filename = "34/1832.c"
target datalayout = "e-m:e-p270:32:32-p271:32:32-p272:64:64-i64:64-f80:128-n8:16:32:64-S128"
target triple = "x86_64-pc-linux-gnu"

@.str = private unnamed_addr constant [3 x i8] c"%d\00", align 1
@.str.1 = private unnamed_addr constant [4 x i8] c"End\00", align 1
@.str.2 = private unnamed_addr constant [11 x i8] c"%d*3+1=%d\0A\00", align 1
@.str.3 = private unnamed_addr constant [9 x i8] c"%d/2=%d\0A\00", align 1

; Function Attrs: noinline nounwind uwtable
define dso_local i32 @main() #0 {
  %1 = alloca i32, align 4
  %2 = alloca i32, align 4
  %3 = alloca i32, align 4
  %4 = alloca i32, align 4
  store i32 0, i32* %1, align 4
  %5 = call i32 (i8*, ...) @__isoc99_scanf(i8* getelementptr inbounds ([3 x i8], [3 x i8]* @.str, i64 0, i64 0), i32* %2)
  %6 = load i32, i32* %2, align 4
  %7 = icmp eq i32 %6, 1
  br i1 %7, label %8, label %10

8:                                                ; preds = %0
  %9 = call i32 (i8*, ...) @printf(i8* getelementptr inbounds ([4 x i8], [4 x i8]* @.str.1, i64 0, i64 0))
  store i32 0, i32* %1, align 4
  br label %45

10:                                               ; preds = %0
  %11 = load i32, i32* %2, align 4
  store i32 %11, i32* %3, align 4
  store i32 1, i32* %4, align 4
  br label %12

12:                                               ; preds = %40, %10
  %13 = load i32, i32* %3, align 4
  %14 = icmp ne i32 %13, 1
  br i1 %14, label %15, label %43

15:                                               ; preds = %12
  %16 = load i32, i32* %2, align 4
  %17 = srem i32 %16, 2
  %18 = icmp ne i32 %17, 0
  br i1 %18, label %19, label %27

19:                                               ; preds = %15
  %20 = load i32, i32* %2, align 4
  %21 = mul nsw i32 %20, 3
  %22 = add nsw i32 %21, 1
  store i32 %22, i32* %3, align 4
  %23 = load i32, i32* %2, align 4
  %24 = load i32, i32* %3, align 4
  %25 = call i32 (i8*, ...) @printf(i8* getelementptr inbounds ([11 x i8], [11 x i8]* @.str.2, i64 0, i64 0), i32 %23, i32 %24)
  %26 = load i32, i32* %3, align 4
  store i32 %26, i32* %2, align 4
  br label %39

27:                                               ; preds = %15
  %28 = load i32, i32* %2, align 4
  %29 = srem i32 %28, 2
  %30 = icmp eq i32 %29, 0
  br i1 %30, label %31, label %38

31:                                               ; preds = %27
  %32 = load i32, i32* %2, align 4
  %33 = sdiv i32 %32, 2
  store i32 %33, i32* %3, align 4
  %34 = load i32, i32* %2, align 4
  %35 = load i32, i32* %3, align 4
  %36 = call i32 (i8*, ...) @printf(i8* getelementptr inbounds ([9 x i8], [9 x i8]* @.str.3, i64 0, i64 0), i32 %34, i32 %35)
  %37 = load i32, i32* %3, align 4
  store i32 %37, i32* %2, align 4
  br label %38

38:                                               ; preds = %31, %27
  br label %39

39:                                               ; preds = %38, %19
  br label %40

40:                                               ; preds = %39
  %41 = load i32, i32* %4, align 4
  %42 = add nsw i32 %41, 1
  store i32 %42, i32* %4, align 4
  br label %12

43:                                               ; preds = %12
  %44 = call i32 (i8*, ...) @printf(i8* getelementptr inbounds ([4 x i8], [4 x i8]* @.str.1, i64 0, i64 0))
  store i32 0, i32* %1, align 4
  br label %45

45:                                               ; preds = %43, %8
  %46 = load i32, i32* %1, align 4
  ret i32 %46
}

declare dso_local i32 @__isoc99_scanf(i8*, ...) #1

declare dso_local i32 @printf(i8*, ...) #1


!llvm.module.flags = !{!0}
!llvm.ident = !{!1}

!0 = !{i32 1, !"wchar_size", i32 4}
!1 = !{!"clang version 10.0.0-4ubuntu1 "}
